target datalayout = "e-m:e-p270:32:32-p271:32:32-p272:64:64-i64:64-i128:128-f80:128-n8:16:32:64-S128"
target triple = "x86_64-pc-linux-gnu"

%struct.ossl_param_st = type { ptr, i32, ptr, i64, i64 }

@.str.5 = private unnamed_addr constant [5 x i8] c"size\00", align 1

; Function Attrs: inlinehint nounwind uwtable
define internal void @store32(ptr noundef %0, i32 noundef %1) #4 {
  %3 = alloca ptr, align 8
  %4 = alloca i32, align 4
  store ptr %0, ptr %3, align 8, !tbaa !28
  store i32 %1, ptr %4, align 4, !tbaa !26
  %5 = load i32, ptr %4, align 4, !tbaa !26
  %6 = lshr i32 %5, 0
  %7 = trunc i32 %6 to i8
  %8 = load ptr, ptr %3, align 8, !tbaa !28
  %9 = getelementptr inbounds i8, ptr %8, i64 0
  store i8 %7, ptr %9, align 1, !tbaa !54
  %10 = load i32, ptr %4, align 4, !tbaa !26
  %11 = lshr i32 %10, 8
  %12 = trunc i32 %11 to i8
  %13 = load ptr, ptr %3, align 8, !tbaa !28
  %14 = getelementptr inbounds i8, ptr %13, i64 1
  store i8 %12, ptr %14, align 1, !tbaa !54
  %15 = load i32, ptr %4, align 4, !tbaa !26
  %16 = lshr i32 %15, 16
  %17 = trunc i32 %16 to i8
  %18 = load ptr, ptr %3, align 8, !tbaa !28
  %19 = getelementptr inbounds i8, ptr %18, i64 2
  store i8 %17, ptr %19, align 1, !tbaa !54
  %20 = load i32, ptr %4, align 4, !tbaa !26
  %21 = lshr i32 %20, 24
  %22 = trunc i32 %21 to i8
  %23 = load ptr, ptr %3, align 8, !tbaa !28
  %24 = getelementptr inbounds i8, ptr %23, i64 3
  store i8 %22, ptr %24, align 1, !tbaa !54
  ret void
}

; Function Attrs: nounwind uwtable
define internal i32 @blake2b_long(ptr noundef %0, ptr noundef %1, ptr noundef %2, i64 noundef %3, ptr noundef %4, i64 noundef %5) #0 {
  %7 = alloca i32, align 4
  %8 = alloca ptr, align 8
  %9 = alloca ptr, align 8
  %10 = alloca ptr, align 8
  %11 = alloca i64, align 8
  %12 = alloca ptr, align 8
  %13 = alloca i64, align 8
  %14 = alloca i32, align 4
  %15 = alloca ptr, align 8
  %16 = alloca i32, align 4
  %17 = alloca [64 x i8], align 16
  %18 = alloca [64 x i8], align 16
  %19 = alloca [4 x i8], align 1
  %20 = alloca [2 x %struct.ossl_param_st], align 16
  %21 = alloca i64, align 8
  %22 = alloca i32, align 4
  %23 = alloca %struct.ossl_param_st, align 8
  %24 = alloca %struct.ossl_param_st, align 8
  store ptr %0, ptr %8, align 8, !tbaa !55
  store ptr %1, ptr %9, align 8, !tbaa !56
  store ptr %2, ptr %10, align 8, !tbaa !28
  store i64 %3, ptr %11, align 8, !tbaa !29
  store ptr %4, ptr %12, align 8, !tbaa !3
  store i64 %5, ptr %13, align 8, !tbaa !29
  call void @llvm.lifetime.start.p0(i64 4, ptr %14) #6
  store i32 0, ptr %14, align 4, !tbaa !26
  call void @llvm.lifetime.start.p0(i64 8, ptr %15) #6
  store ptr null, ptr %15, align 8, !tbaa !49
  call void @llvm.lifetime.start.p0(i64 4, ptr %16) #6
  call void @llvm.lifetime.start.p0(i64 64, ptr %17) #6
  call void @llvm.lifetime.start.p0(i64 64, ptr %18) #6
  call void @llvm.lifetime.start.p0(i64 4, ptr %19) #6
  call void @llvm.memset.p0.i64(ptr align 1 %19, i8 0, i64 4, i1 false)
  call void @llvm.lifetime.start.p0(i64 80, ptr %20) #6
  call void @llvm.lifetime.start.p0(i64 8, ptr %21) #6
  %25 = load ptr, ptr %10, align 8, !tbaa !28
  %26 = icmp eq ptr %25, null
  br i1 %26, label %30, label %27

27:                                               ; preds = %6
  %28 = load i64, ptr %11, align 8, !tbaa !29
  %29 = icmp eq i64 %28, 0
  br i1 %29, label %30, label %31

30:                                               ; preds = %27, %6
  store i32 0, ptr %7, align 4
  store i32 1, ptr %22, align 4
  br label %134

31:                                               ; preds = %27
  %32 = getelementptr inbounds [4 x i8], ptr %19, i64 0, i64 0
  %33 = load i64, ptr %11, align 8, !tbaa !29
  %34 = trunc i64 %33 to i32
  call void @store32(ptr noundef %32, i32 noundef %34)
  %35 = call ptr @EVP_MD_CTX_new()
  store ptr %35, ptr %15, align 8, !tbaa !49
  %36 = icmp eq ptr %35, null
  br i1 %36, label %37, label %38

37:                                               ; preds = %31
  store i32 0, ptr %7, align 4
  store i32 1, ptr %22, align 4
  br label %134

38:                                               ; preds = %31
  %39 = load i64, ptr %11, align 8, !tbaa !29
  %40 = icmp ule i64 %39, 64
  br i1 %40, label %41, label %43

41:                                               ; preds = %38
  %42 = load i64, ptr %11, align 8, !tbaa !29
  br label %44

43:                                               ; preds = %38
  br label %44

44:                                               ; preds = %43, %41
  %45 = phi i64 [ %42, %41 ], [ 64, %43 ]
  store i64 %45, ptr %21, align 8, !tbaa !29
  %46 = getelementptr inbounds [2 x %struct.ossl_param_st], ptr %20, i64 0, i64 0
  call void @llvm.lifetime.start.p0(i64 40, ptr %23) #6
  call void @OSSL_PARAM_construct_size_t(ptr dead_on_unwind writable sret(%struct.ossl_param_st) align 8 %23, ptr noundef @.str.5, ptr noundef %21)
  call void @llvm.memcpy.p0.p0.i64(ptr align 16 %46, ptr align 8 %23, i64 40, i1 false), !tbaa.struct !57
  call void @llvm.lifetime.end.p0(i64 40, ptr %23) #6
  %47 = getelementptr inbounds [2 x %struct.ossl_param_st], ptr %20, i64 0, i64 1
  call void @llvm.lifetime.start.p0(i64 40, ptr %24) #6
  call void @OSSL_PARAM_construct_end(ptr dead_on_unwind writable sret(%struct.ossl_param_st) align 8 %24)
  call void @llvm.memcpy.p0.p0.i64(ptr align 8 %47, ptr align 8 %24, i64 40, i1 false), !tbaa.struct !57
  call void @llvm.lifetime.end.p0(i64 40, ptr %24) #6
  %48 = load ptr, ptr %15, align 8, !tbaa !49
  %49 = load ptr, ptr %8, align 8, !tbaa !55
  %50 = getelementptr inbounds [2 x %struct.ossl_param_st], ptr %20, i64 0, i64 0
  %51 = call i32 @EVP_DigestInit_ex2(ptr noundef %48, ptr noundef %49, ptr noundef %50)
  %52 = icmp eq i32 %51, 1
  br i1 %52, label %53, label %76

53:                                               ; preds = %44
  %54 = load ptr, ptr %15, align 8, !tbaa !49
  %55 = getelementptr inbounds [4 x i8], ptr %19, i64 0, i64 0
  %56 = call i32 @EVP_DigestUpdate(ptr noundef %54, ptr noundef %55, i64 noundef 4)
  %57 = icmp eq i32 %56, 1
  br i1 %57, label %58, label %76

58:                                               ; preds = %53
  %59 = load ptr, ptr %15, align 8, !tbaa !49
  %60 = load ptr, ptr %12, align 8, !tbaa !3
  %61 = load i64, ptr %13, align 8, !tbaa !29
  %62 = call i32 @EVP_DigestUpdate(ptr noundef %59, ptr noundef %60, i64 noundef %61)
  %63 = icmp eq i32 %62, 1
  br i1 %63, label %64, label %76

64:                                               ; preds = %58
  %65 = load ptr, ptr %15, align 8, !tbaa !49
  %66 = load i64, ptr %11, align 8, !tbaa !29
  %67 = icmp ugt i64 %66, 64
  br i1 %67, label %68, label %70

68:                                               ; preds = %64
  %69 = getelementptr inbounds [64 x i8], ptr %17, i64 0, i64 0
  br label %72

70:                                               ; preds = %64
  %71 = load ptr, ptr %10, align 8, !tbaa !28
  br label %72

72:                                               ; preds = %70, %68
  %73 = phi ptr [ %69, %68 ], [ %71, %70 ]
  %74 = call i32 @EVP_DigestFinal_ex(ptr noundef %65, ptr noundef %73, ptr noundef null)
  %75 = icmp eq i32 %74, 1
  br label %76

76:                                               ; preds = %72, %58, %53, %44
  %77 = phi i1 [ false, %58 ], [ false, %53 ], [ false, %44 ], [ %75, %72 ]
  %78 = zext i1 %77 to i32
  store i32 %78, ptr %14, align 4, !tbaa !26
  %79 = load i32, ptr %14, align 4, !tbaa !26
  %80 = icmp eq i32 %79, 0
  br i1 %80, label %81, label %82

81:                                               ; preds = %76
  br label %131

82:                                               ; preds = %76
  %83 = load i64, ptr %11, align 8, !tbaa !29
  %84 = icmp ugt i64 %83, 64
  br i1 %84, label %85, label %130

85:                                               ; preds = %82
  %86 = load ptr, ptr %10, align 8, !tbaa !28
  %87 = getelementptr inbounds [64 x i8], ptr %17, i64 0, i64 0
  call void @llvm.memcpy.p0.p0.i64(ptr align 1 %86, ptr align 16 %87, i64 32, i1 false)
  %88 = load ptr, ptr %10, align 8, !tbaa !28
  %89 = getelementptr inbounds i8, ptr %88, i64 32
  store ptr %89, ptr %10, align 8, !tbaa !28
  %90 = load i64, ptr %11, align 8, !tbaa !29
  %91 = trunc i64 %90 to i32
  %92 = sub i32 %91, 32
  store i32 %92, ptr %16, align 4, !tbaa !26
  br label %93

93:                                               ; preds = %106, %85
  %94 = load i32, ptr %16, align 4, !tbaa !26
  %95 = icmp ugt i32 %94, 64
  br i1 %95, label %96, label %113

96:                                               ; preds = %93
  %97 = getelementptr inbounds [64 x i8], ptr %18, i64 0, i64 0
  %98 = getelementptr inbounds [64 x i8], ptr %17, i64 0, i64 0
  call void @llvm.memcpy.p0.p0.i64(ptr align 16 %97, ptr align 16 %98, i64 64, i1 false)
  %99 = load ptr, ptr %8, align 8, !tbaa !55
  %100 = load ptr, ptr %9, align 8, !tbaa !56
  %101 = getelementptr inbounds [64 x i8], ptr %17, i64 0, i64 0
  %102 = getelementptr inbounds [64 x i8], ptr %18, i64 0, i64 0
  %103 = call i32 @blake2b(ptr noundef %99, ptr noundef %100, ptr noundef %101, i64 noundef 64, ptr noundef %102, i64 noundef 64, ptr noundef null, i64 noundef 0)
  %104 = icmp ne i32 %103, 1
  br i1 %104, label %105, label %106

105:                                              ; preds = %96
  br label %131

106:                                              ; preds = %96
  %107 = load ptr, ptr %10, align 8, !tbaa !28
  %108 = getelementptr inbounds [64 x i8], ptr %17, i64 0, i64 0
  call void @llvm.memcpy.p0.p0.i64(ptr align 1 %107, ptr align 16 %108, i64 32, i1 false)
  %109 = load ptr, ptr %10, align 8, !tbaa !28
  %110 = getelementptr inbounds i8, ptr %109, i64 32
  store ptr %110, ptr %10, align 8, !tbaa !28
  %111 = load i32, ptr %16, align 4, !tbaa !26
  %112 = sub i32 %111, 32
  store i32 %112, ptr %16, align 4, !tbaa !26
  br label %93, !llvm.loop !58

113:                                              ; preds = %93
  %114 = getelementptr inbounds [64 x i8], ptr %18, i64 0, i64 0
  %115 = getelementptr inbounds [64 x i8], ptr %17, i64 0, i64 0
  call void @llvm.memcpy.p0.p0.i64(ptr align 16 %114, ptr align 16 %115, i64 64, i1 false)
  %116 = load ptr, ptr %8, align 8, !tbaa !55
  %117 = load ptr, ptr %9, align 8, !tbaa !56
  %118 = getelementptr inbounds [64 x i8], ptr %17, i64 0, i64 0
  %119 = load i32, ptr %16, align 4, !tbaa !26
  %120 = zext i32 %119 to i64
  %121 = getelementptr inbounds [64 x i8], ptr %18, i64 0, i64 0
  %122 = call i32 @blake2b(ptr noundef %116, ptr noundef %117, ptr noundef %118, i64 noundef %120, ptr noundef %121, i64 noundef 64, ptr noundef null, i64 noundef 0)
  %123 = icmp ne i32 %122, 1
  br i1 %123, label %124, label %125

124:                                              ; preds = %113
  br label %131

125:                                              ; preds = %113
  %126 = load ptr, ptr %10, align 8, !tbaa !28
  %127 = getelementptr inbounds [64 x i8], ptr %17, i64 0, i64 0
  %128 = load i32, ptr %16, align 4, !tbaa !26
  %129 = zext i32 %128 to i64
  call void @llvm.memcpy.p0.p0.i64(ptr align 1 %126, ptr align 16 %127, i64 %129, i1 false)
  br label %130

130:                                              ; preds = %125, %82
  store i32 1, ptr %14, align 4, !tbaa !26
  br label %131

131:                                              ; preds = %130, %124, %105, %81
  %132 = load ptr, ptr %15, align 8, !tbaa !49
  call void @EVP_MD_CTX_free(ptr noundef %132)
  %133 = load i32, ptr %14, align 4, !tbaa !26
  store i32 %133, ptr %7, align 4
  store i32 1, ptr %22, align 4
  br label %134

134:                                              ; preds = %131, %37, %30
  call void @llvm.lifetime.end.p0(i64 8, ptr %21) #6
  call void @llvm.lifetime.end.p0(i64 80, ptr %20) #6
  call void @llvm.lifetime.end.p0(i64 4, ptr %19) #6
  call void @llvm.lifetime.end.p0(i64 64, ptr %18) #6
  call void @llvm.lifetime.end.p0(i64 64, ptr %17) #6
  call void @llvm.lifetime.end.p0(i64 4, ptr %16) #6
  call void @llvm.lifetime.end.p0(i64 8, ptr %15) #6
  call void @llvm.lifetime.end.p0(i64 4, ptr %14) #6
  %135 = load i32, ptr %7, align 4
  ret i32 %135
}