; Function Attrs: nounwind uwtable
define internal fastcc void @blake2b_long(ptr noundef %0, ptr noundef %1, i64 noundef range(i64 0, 4294967296) %2, ptr noundef nonnull %3, i64 noundef range(i64 72, 1025) %4) unnamed_addr #0 {
  %6 = alloca [64 x i8], align 16
  %7 = alloca [64 x i8], align 16
  %8 = alloca [4 x i8], align 1
  %9 = alloca [2 x %struct.ossl_param_st], align 16
  %10 = alloca i64, align 8
  %11 = alloca %struct.ossl_param_st, align 8
  call void @llvm.lifetime.start.p0(i64 64, ptr nonnull %6) #10
  call void @llvm.lifetime.start.p0(i64 64, ptr nonnull %7) #10
  call void @llvm.lifetime.start.p0(i64 4, ptr nonnull %8) #10
  call void @llvm.lifetime.start.p0(i64 80, ptr nonnull %9) #10
  call void @llvm.lifetime.start.p0(i64 8, ptr nonnull %10) #10
  %12 = icmp eq ptr %1, null
  %13 = icmp eq i64 %2, 0
  %or.cond = or i1 %12, %13
  br i1 %or.cond, label %52, label %14

14:                                               ; preds = %5
  %15 = trunc nuw i64 %2 to i32
  %16 = trunc i64 %2 to i8
  store i8 %16, ptr %8, align 1, !tbaa !44
  %17 = lshr i64 %2, 8
  %18 = trunc i64 %17 to i8
  %19 = getelementptr inbounds nuw i8, ptr %8, i64 1
  store i8 %18, ptr %19, align 1, !tbaa !44
  %20 = lshr i64 %2, 16
  %21 = trunc i64 %20 to i8
  %22 = getelementptr inbounds nuw i8, ptr %8, i64 2
  store i8 %21, ptr %22, align 1, !tbaa !44
  %23 = lshr i64 %2, 24
  %24 = trunc nuw i64 %23 to i8
  %25 = getelementptr inbounds nuw i8, ptr %8, i64 3
  store i8 %24, ptr %25, align 1, !tbaa !44
  %26 = tail call ptr @EVP_MD_CTX_new() #10
  %27 = icmp eq ptr %26, null
  br i1 %27, label %52, label %28

28:                                               ; preds = %14
  %29 = tail call i64 @llvm.umin.i64(i64 %2, i64 64)
  store i64 %29, ptr %10, align 8, !tbaa !40
  call void @OSSL_PARAM_construct_size_t(ptr dead_on_unwind nonnull writable sret(%struct.ossl_param_st) align 8 %9, ptr noundef nonnull @.str.5, ptr noundef nonnull %10) #10
  %30 = getelementptr inbounds nuw i8, ptr %9, i64 40
  call void @llvm.lifetime.start.p0(i64 40, ptr nonnull %11) #10
  call void @OSSL_PARAM_construct_end(ptr dead_on_unwind nonnull writable sret(%struct.ossl_param_st) align 8 %11) #10
  call void @llvm.memcpy.p0.p0.i64(ptr noundef nonnull align 8 dereferenceable(40) %30, ptr noundef nonnull align 8 dereferenceable(40) %11, i64 40, i1 false), !tbaa.struct !65
  call void @llvm.lifetime.end.p0(i64 40, ptr nonnull %11) #10
  %31 = call i32 @EVP_DigestInit_ex2(ptr noundef nonnull %26, ptr noundef %0, ptr noundef nonnull %9) #10
  %32 = icmp eq i32 %31, 1
  br i1 %32, label %33, label %.critedge

33:                                               ; preds = %28
  %34 = call i32 @EVP_DigestUpdate(ptr noundef nonnull %26, ptr noundef nonnull %8, i64 noundef 4) #10
  %35 = icmp eq i32 %34, 1
  br i1 %35, label %36, label %.critedge

36:                                               ; preds = %33
  %37 = call i32 @EVP_DigestUpdate(ptr noundef nonnull %26, ptr noundef nonnull %3, i64 noundef %4) #10
  %38 = icmp eq i32 %37, 1
  br i1 %38, label %39, label %.critedge

39:                                               ; preds = %36
  %40 = icmp samesign ult i64 %2, 65
  %41 = select i1 %40, ptr %1, ptr %6
  %42 = call i32 @EVP_DigestFinal_ex(ptr noundef nonnull %26, ptr noundef %41, ptr noundef null) #10
  %43 = icmp ne i32 %42, 1
  %brmerge = or i1 %40, %43
  br i1 %brmerge, label %.critedge, label %44

44:                                               ; preds = %39
  call void @llvm.memcpy.p0.p0.i64(ptr noundef nonnull align 1 dereferenceable(32) %1, ptr noundef nonnull align 16 dereferenceable(32) %6, i64 32, i1 false)
  %.03 = add i32 %15, -32
  %.0354 = getelementptr inbounds nuw i8, ptr %1, i64 32
  %45 = icmp ugt i32 %.03, 64
  br i1 %45, label %.lr.ph, label %._crit_edge

.lr.ph:                                           ; preds = %44, %47
  %.0356 = phi ptr [ %.035, %47 ], [ %.0354, %44 ]
  %.05 = phi i32 [ %.0, %47 ], [ %.03, %44 ]
  call void @llvm.memcpy.p0.p0.i64(ptr noundef nonnull align 16 dereferenceable(64) %7, ptr noundef nonnull align 16 dereferenceable(64) %6, i64 64, i1 false)
  %46 = call fastcc i32 @blake2b(ptr noundef %0, ptr noundef %6, i64 noundef 64, ptr noundef %7)
  %.not.not40 = icmp eq i32 %46, 0
  br i1 %.not.not40, label %.critedge, label %47

47:                                               ; preds = %.lr.ph
  call void @llvm.memcpy.p0.p0.i64(ptr noundef nonnull align 1 dereferenceable(32) %.0356, ptr noundef nonnull align 16 dereferenceable(32) %6, i64 32, i1 false)
  %.0 = add i32 %.05, -32
  %.035 = getelementptr inbounds nuw i8, ptr %.0356, i64 32
  %48 = icmp ugt i32 %.0, 64
  br i1 %48, label %.lr.ph, label %._crit_edge, !llvm.loop !67

._crit_edge:                                      ; preds = %47, %44
  %.0.lcssa = phi i32 [ %.03, %44 ], [ %.0, %47 ]
  %.035.lcssa = phi ptr [ %.0354, %44 ], [ %.035, %47 ]
  call void @llvm.memcpy.p0.p0.i64(ptr noundef nonnull align 16 dereferenceable(64) %7, ptr noundef nonnull align 16 dereferenceable(64) %6, i64 64, i1 false)
  %49 = zext nneg i32 %.0.lcssa to i64
  %50 = call fastcc i32 @blake2b(ptr noundef %0, ptr noundef %6, i64 noundef %49, ptr noundef %7)
  %.not.not = icmp eq i32 %50, 0
  br i1 %.not.not, label %.critedge, label %51

51:                                               ; preds = %._crit_edge
  call void @llvm.memcpy.p0.p0.i64(ptr nonnull align 1 %.035.lcssa, ptr nonnull align 16 %6, i64 %49, i1 false)
  br label %.critedge

.critedge:                                        ; preds = %.lr.ph, %39, %36, %33, %28, %51, %._crit_edge
  call void @EVP_MD_CTX_free(ptr noundef nonnull %26) #10
  br label %52

52:                                               ; preds = %14, %5, %.critedge
  call void @llvm.lifetime.end.p0(i64 8, ptr nonnull %10) #10
  call void @llvm.lifetime.end.p0(i64 80, ptr nonnull %9) #10
  call void @llvm.lifetime.end.p0(i64 4, ptr nonnull %8) #10
  call void @llvm.lifetime.end.p0(i64 64, ptr nonnull %7) #10
  call void @llvm.lifetime.end.p0(i64 64, ptr nonnull %6) #10
  ret void
}